; Function Attrs: nofree norecurse nosync nounwind memory(argmem: readwrite) uwtable
define dso_local void @KeccakP1600_AddBytes(ptr noundef captures(none) %0, ptr noundef readonly captures(none) %1, i32 noundef %2, i32 noundef %3) local_unnamed_addr #5 {
  %5 = alloca i64, align 8
  %6 = alloca i64, align 8
  %7 = icmp eq i32 %2, 0
  br i1 %7, label %8, label %24

8:                                                ; preds = %4
  %9 = lshr i32 %3, 3
  tail call void @KeccakP1600_AddLanes(ptr noundef %0, ptr noundef %1, i32 noundef %9)
  %10 = and i32 %3, -8
  %11 = zext i32 %10 to i64
  %12 = getelementptr inbounds nuw i8, ptr %1, i64 %11
  %13 = and i32 %3, 7
  call void @llvm.lifetime.start.p0(i64 8, ptr nonnull %6)
  switch i32 %13, label %17 [
    i32 0, label %KeccakP1600_AddBytesInLane.exit
    i32 1, label %14
  ]

14:                                               ; preds = %8
  %15 = load i8, ptr %12, align 1
  %16 = zext i8 %15 to i64
  br label %19

17:                                               ; preds = %8
  store i64 0, ptr %6, align 8
  %18 = zext nneg i32 %13 to i64
  call void @llvm.memcpy.p0.p0.i64(ptr nonnull align 8 %6, ptr readonly align 1 %12, i64 %18, i1 false)
  %.0..0..0..0..0..0..pre.i = load i64, ptr %6, align 8
  br label %19

19:                                               ; preds = %17, %14
  %.0..0..0..i = phi i64 [ %.0..0..0..0..0..0..pre.i, %17 ], [ %16, %14 ]
  %20 = zext nneg i32 %9 to i64
  %21 = getelementptr inbounds nuw i64, ptr %0, i64 %20
  %22 = load i64, ptr %21, align 8
  %23 = xor i64 %22, %.0..0..0..i
  store i64 %23, ptr %21, align 8
  br label %KeccakP1600_AddBytesInLane.exit

KeccakP1600_AddBytesInLane.exit:                  ; preds = %8, %19
  call void @llvm.lifetime.end.p0(i64 8, ptr nonnull %6)
  br label %.loopexit

24:                                               ; preds = %4
  %.not36 = icmp eq i32 %3, 0
  br i1 %.not36, label %.loopexit, label %.lr.ph.preheader

.lr.ph.preheader:                                 ; preds = %24
  %25 = and i32 %2, 7
  %26 = lshr i32 %2, 3
  br label %.lr.ph

.lr.ph:                                           ; preds = %.lr.ph.preheader, %KeccakP1600_AddBytesInLane.exit35
  %.02740 = phi ptr [ %42, %KeccakP1600_AddBytesInLane.exit35 ], [ %1, %.lr.ph.preheader ]
  %.02839 = phi i32 [ 0, %KeccakP1600_AddBytesInLane.exit35 ], [ %25, %.lr.ph.preheader ]
  %.02938 = phi i32 [ %41, %KeccakP1600_AddBytesInLane.exit35 ], [ %26, %.lr.ph.preheader ]
  %.03037 = phi i32 [ %40, %KeccakP1600_AddBytesInLane.exit35 ], [ %3, %.lr.ph.preheader ]
  %27 = sub nuw nsw i32 8, %.02839
  %spec.select = tail call i32 @llvm.umin.i32(i32 %27, i32 %.03037)
  call void @llvm.lifetime.start.p0(i64 8, ptr nonnull %5)
  %cond = icmp eq i32 %spec.select, 1
  br i1 %cond, label %28, label %31

28:                                               ; preds = %.lr.ph
  %29 = load i8, ptr %.02740, align 1
  %30 = zext i8 %29 to i64
  br label %KeccakP1600_AddBytesInLane.exit35

31:                                               ; preds = %.lr.ph
  store i64 0, ptr %5, align 8
  %32 = zext nneg i32 %spec.select to i64
  call void @llvm.memcpy.p0.p0.i64(ptr noundef nonnull align 8 dereferenceable(1) %5, ptr noundef nonnull readonly align 1 dereferenceable(1) %.02740, i64 %32, i1 false)
  %.0..0..0..0..0..0..pre.i34 = load i64, ptr %5, align 8
  br label %KeccakP1600_AddBytesInLane.exit35

KeccakP1600_AddBytesInLane.exit35:                ; preds = %31, %28
  %.pre-phi = phi i64 [ %32, %31 ], [ 1, %28 ]
  %.0..0..0..i33 = phi i64 [ %.0..0..0..0..0..0..pre.i34, %31 ], [ %30, %28 ]
  %33 = shl nuw nsw i32 %.02839, 3
  %34 = zext nneg i32 %33 to i64
  %35 = shl i64 %.0..0..0..i33, %34
  %36 = zext i32 %.02938 to i64
  %37 = getelementptr inbounds nuw i64, ptr %0, i64 %36
  %38 = load i64, ptr %37, align 8
  %39 = xor i64 %38, %35
  store i64 %39, ptr %37, align 8
  call void @llvm.lifetime.end.p0(i64 8, ptr nonnull %5)
  %40 = sub i32 %.03037, %spec.select
  %41 = add i32 %.02938, 1
  %42 = getelementptr inbounds nuw i8, ptr %.02740, i64 %.pre-phi
  %.not = icmp eq i32 %40, 0
  br i1 %.not, label %.loopexit, label %.lr.ph, !llvm.loop !13

.loopexit:                                        ; preds = %KeccakP1600_AddBytesInLane.exit35, %24, %KeccakP1600_AddBytesInLane.exit
  ret void
}